target datalayout = "e-m:e-p270:32:32-p271:32:32-p272:64:64-i64:64-i128:128-f80:128-n8:16:32:64-S128"
target triple = "x86_64-pc-linux-gnu"

%class.Register = type { i32 }
%class.XMMRegister = type { i32 }
%class.Address = type { %class.Register, %class.Register, %class.XMMRegister, i32, i32, i8, [3 x i8], %class.RelocationHolder }
%class.RelocationHolder = type { [40 x i8] }

@_ZL5noreg = internal constant %class.Register { i32 -1 }, align 4

; Function Attrs: mustprogress nounwind uwtable
define linkonce_odr hidden noundef ptr @_ZNK16RelocationHolder5relocEv(ptr noundef nonnull align 8 dereferenceable(40) %0) #1 comdat align 2 {
  %2 = alloca ptr, align 8
  store ptr %0, ptr %2, align 8
  %3 = load ptr, ptr %2, align 8
  %4 = getelementptr inbounds %class.RelocationHolder, ptr %3, i32 0, i32 0
  %5 = getelementptr inbounds [40 x i8], ptr %4, i64 0, i64 0
  ret ptr %5
}

; Function Attrs: mustprogress nounwind uwtable
define linkonce_odr hidden void @_ZN16RelocationHolderC2ERKS_(ptr noundef nonnull align 8 dereferenceable(40) %0, ptr noundef nonnull align 8 dereferenceable(40) %1) unnamed_addr #1 comdat align 2 {
  %3 = alloca ptr, align 8
  %4 = alloca ptr, align 8
  store ptr %0, ptr %3, align 8
  store ptr %1, ptr %4, align 8
  %5 = load ptr, ptr %3, align 8
  %6 = load ptr, ptr %4, align 8
  %7 = call noundef ptr @_ZNK16RelocationHolder5relocEv(ptr noundef nonnull align 8 dereferenceable(40) %6)
  %8 = load ptr, ptr %7, align 8
  %9 = getelementptr inbounds ptr, ptr %8, i64 2
  %10 = load ptr, ptr %9, align 8
  call void %10(ptr noundef nonnull align 8 dereferenceable(20) %7, ptr noundef nonnull align 8 dereferenceable(40) %5)
  ret void
}

; Function Attrs: mustprogress nounwind uwtable
define linkonce_odr hidden void @_ZN14MacroAssembler3leaE8Register7Address(ptr noundef nonnull align 8 dereferenceable(40) %0, i32 %1, ptr noundef %2) #1 comdat align 2 {
  %4 = alloca %class.Register, align 4
  %5 = alloca ptr, align 8
  %6 = alloca ptr, align 8
  %7 = alloca %class.Register, align 4
  %8 = alloca %class.Address, align 8
  %9 = getelementptr inbounds %class.Register, ptr %4, i32 0, i32 0
  store i32 %1, ptr %9, align 4
  store ptr %0, ptr %5, align 8
  store ptr %2, ptr %6, align 8
  %10 = load ptr, ptr %5, align 8
  call void @llvm.memcpy.p0.p0.i64(ptr align 4 %7, ptr align 4 %4, i64 4, i1 false)
  call void @_ZN7AddressC2ERKS_(ptr noundef nonnull align 8 dereferenceable(64) %8, ptr noundef nonnull align 8 dereferenceable(64) %2)
  %11 = getelementptr inbounds %class.Register, ptr %7, i32 0, i32 0
  %12 = load i32, ptr %11, align 4
  call void @_ZN9Assembler3leaE8Register7Address(ptr noundef nonnull align 8 dereferenceable(40) %10, i32 %12, ptr noundef %8)
  ret void
}

; Function Attrs: mustprogress nounwind uwtable
define linkonce_odr hidden i32 @_ZNK7Address4baseEv(ptr noundef nonnull align 8 dereferenceable(64) %0) #1 comdat align 2 {
  %2 = alloca %class.Register, align 4
  %3 = alloca ptr, align 8
  store ptr %0, ptr %3, align 8
  %4 = load ptr, ptr %3, align 8
  %5 = getelementptr inbounds %class.Address, ptr %4, i32 0, i32 0
  call void @llvm.memcpy.p0.p0.i64(ptr align 4 %2, ptr align 8 %5, i64 4, i1 false)
  %6 = getelementptr inbounds %class.Register, ptr %2, i32 0, i32 0
  %7 = load i32, ptr %6, align 4
  ret i32 %7
}

; Function Attrs: mustprogress nounwind uwtable
define linkonce_odr hidden noundef i32 @_ZN7Address4dispEv(ptr noundef nonnull align 8 dereferenceable(64) %0) #1 comdat align 2 {
  %2 = alloca ptr, align 8
  store ptr %0, ptr %2, align 8
  %3 = load ptr, ptr %2, align 8
  %4 = getelementptr inbounds %class.Address, ptr %3, i32 0, i32 4
  %5 = load i32, ptr %4, align 8
  ret i32 %5
}

; Function Attrs: mustprogress nounwind uwtable
define linkonce_odr hidden noundef i32 @_ZNK8RegistereqES_(ptr noundef nonnull align 4 dereferenceable(4) %0, i32 %1) #1 comdat align 2 {
  %3 = alloca %class.Register, align 4
  %4 = alloca ptr, align 8
  %5 = getelementptr inbounds %class.Register, ptr %3, i32 0, i32 0
  store i32 %1, ptr %5, align 4
  store ptr %0, ptr %4, align 8
  %6 = load ptr, ptr %4, align 8
  %7 = getelementptr inbounds %class.Register, ptr %6, i32 0, i32 0
  %8 = load i32, ptr %7, align 4
  %9 = getelementptr inbounds %class.Register, ptr %3, i32 0, i32 0
  %10 = load i32, ptr %9, align 4
  %11 = icmp eq i32 %8, %10
  %12 = zext i1 %11 to i32
  ret i32 %12
}

; Function Attrs: mustprogress nounwind uwtable
define linkonce_odr hidden i32 @_ZNK7Address5indexEv(ptr noundef nonnull align 8 dereferenceable(64) %0) #1 comdat align 2 {
  %2 = alloca %class.Register, align 4
  %3 = alloca ptr, align 8
  store ptr %0, ptr %3, align 8
  %4 = load ptr, ptr %3, align 8
  %5 = getelementptr inbounds %class.Address, ptr %4, i32 0, i32 1
  call void @llvm.memcpy.p0.p0.i64(ptr align 4 %2, ptr align 4 %5, i64 4, i1 false)
  %6 = getelementptr inbounds %class.Register, ptr %2, i32 0, i32 0
  %7 = load i32, ptr %6, align 4
  ret i32 %7
}

; Function Attrs: mustprogress nounwind uwtable
define linkonce_odr hidden void @_ZN7AddressC2ERKS_(ptr noundef nonnull align 8 dereferenceable(64) %0, ptr noundef nonnull align 8 dereferenceable(64) %1) unnamed_addr #1 comdat align 2 {
  %3 = alloca ptr, align 8
  %4 = alloca ptr, align 8
  store ptr %0, ptr %3, align 8
  store ptr %1, ptr %4, align 8
  %5 = load ptr, ptr %3, align 8
  %6 = getelementptr inbounds %class.Address, ptr %5, i32 0, i32 0
  %7 = load ptr, ptr %4, align 8
  %8 = getelementptr inbounds %class.Address, ptr %7, i32 0, i32 0
  call void @llvm.memcpy.p0.p0.i64(ptr align 8 %6, ptr align 8 %8, i64 21, i1 false)
  %9 = getelementptr inbounds %class.Address, ptr %5, i32 0, i32 7
  %10 = load ptr, ptr %4, align 8
  %11 = getelementptr inbounds %class.Address, ptr %10, i32 0, i32 7
  call void @_ZN16RelocationHolderC2ERKS_(ptr noundef nonnull align 8 dereferenceable(40) %9, ptr noundef nonnull align 8 dereferenceable(40) %11)
  ret void
}

; Function Attrs: mustprogress nounwind uwtable
define linkonce_odr hidden noundef i32 @_ZNK8RegisterneES_(ptr noundef nonnull align 4 dereferenceable(4) %0, i32 %1) #1 comdat align 2 {
  %3 = alloca %class.Register, align 4
  %4 = alloca ptr, align 8
  %5 = getelementptr inbounds %class.Register, ptr %3, i32 0, i32 0
  store i32 %1, ptr %5, align 4
  store ptr %0, ptr %4, align 8
  %6 = load ptr, ptr %4, align 8
  %7 = getelementptr inbounds %class.Register, ptr %6, i32 0, i32 0
  %8 = load i32, ptr %7, align 4
  %9 = getelementptr inbounds %class.Register, ptr %3, i32 0, i32 0
  %10 = load i32, ptr %9, align 4
  %11 = icmp ne i32 %8, %10
  %12 = zext i1 %11 to i32
  ret i32 %12
}

; Function Attrs: mustprogress nounwind uwtable
define hidden void @_ZN28CardTableBarrierSetAssembler12oop_store_atEP14MacroAssemblerm9BasicType7Address8RegisterS4_S4_S4_(ptr noundef nonnull align 8 dereferenceable(8) %0, ptr noundef %1, i64 noundef %2, i8 noundef zeroext %3, ptr noundef %4, i32 %5, i32 %6, i32 %7, i32 %8) unnamed_addr #1 align 2 {
  %10 = alloca %class.Register, align 4
  %11 = alloca %class.Register, align 4
  %12 = alloca %class.Register, align 4
  %13 = alloca %class.Register, align 4
  %14 = alloca ptr, align 8
  %15 = alloca ptr, align 8
  %16 = alloca i64, align 8
  %17 = alloca i8, align 1
  %18 = alloca ptr, align 8
  %19 = alloca i8, align 1
  %20 = alloca i8, align 1
  %21 = alloca i8, align 1
  %22 = alloca i8, align 1
  %23 = alloca i8, align 1
  %24 = alloca %class.Register, align 4
  %25 = alloca %class.Address, align 8
  %26 = alloca %class.Register, align 4
  %27 = alloca %class.Register, align 4
  %28 = alloca %class.Register, align 4
  %29 = alloca %class.Register, align 4
  %30 = alloca %class.Register, align 4
  %31 = alloca %class.Register, align 4
  %32 = alloca %class.Register, align 4
  %33 = alloca %class.Address, align 8
  %34 = alloca %class.Register, align 4
  %35 = alloca %class.Address, align 8
  %36 = alloca %class.Register, align 4
  %37 = alloca %class.Address, align 8
  %38 = getelementptr inbounds %class.Register, ptr %10, i32 0, i32 0
  store i32 %5, ptr %38, align 4
  %39 = getelementptr inbounds %class.Register, ptr %11, i32 0, i32 0
  store i32 %6, ptr %39, align 4
  %40 = getelementptr inbounds %class.Register, ptr %12, i32 0, i32 0
  store i32 %7, ptr %40, align 4
  %41 = getelementptr inbounds %class.Register, ptr %13, i32 0, i32 0
  store i32 %8, ptr %41, align 4
  store ptr %0, ptr %14, align 8
  store ptr %1, ptr %15, align 8
  store i64 %2, ptr %16, align 8
  store i8 %3, ptr %17, align 1
  store ptr %4, ptr %18, align 8
  %42 = load ptr, ptr %14, align 8
  %43 = load i64, ptr %16, align 8
  %44 = and i64 %43, 262144
  %45 = icmp ne i64 %44, 0
  %46 = zext i1 %45 to i8
  store i8 %46, ptr %19, align 1
  %47 = load i64, ptr %16, align 8
  %48 = and i64 %47, 2097152
  %49 = icmp ne i64 %48, 0
  %50 = zext i1 %49 to i8
  store i8 %50, ptr %20, align 1
  %51 = load i64, ptr %16, align 8
  %52 = and i64 %51, 131072
  %53 = icmp ne i64 %52, 0
  %54 = zext i1 %53 to i8
  store i8 %54, ptr %21, align 1
  %55 = load i8, ptr %20, align 1
  %56 = trunc i8 %55 to i1
  br i1 %56, label %60, label %57

57:                                               ; preds = %9
  %58 = load i8, ptr %21, align 1
  %59 = trunc i8 %58 to i1
  br label %60

60:                                               ; preds = %57, %9
  %61 = phi i1 [ true, %9 ], [ %59, %57 ]
  %62 = zext i1 %61 to i8
  store i8 %62, ptr %22, align 1
  call void @llvm.memcpy.p0.p0.i64(ptr align 4 %24, ptr align 4 @_ZL5noreg, i64 4, i1 false)
  %63 = getelementptr inbounds %class.Register, ptr %24, i32 0, i32 0
  %64 = load i32, ptr %63, align 4
  %65 = call noundef i32 @_ZNK8RegisterneES_(ptr noundef nonnull align 4 dereferenceable(4) %10, i32 %64)
  %66 = icmp ne i32 %65, 0
  br i1 %66, label %67, label %70

67:                                               ; preds = %60
  %68 = load i8, ptr %19, align 1
  %69 = trunc i8 %68 to i1
  br label %70

70:                                               ; preds = %67, %60
  %71 = phi i1 [ false, %60 ], [ %69, %67 ]
  %72 = zext i1 %71 to i8
  store i8 %72, ptr %23, align 1
  %73 = load ptr, ptr %15, align 8
  %74 = load i64, ptr %16, align 8
  %75 = load i8, ptr %17, align 1
  call void @_ZN7AddressC2ERKS_(ptr noundef nonnull align 8 dereferenceable(64) %25, ptr noundef nonnull align 8 dereferenceable(64) %4)
  call void @llvm.memcpy.p0.p0.i64(ptr align 4 %26, ptr align 4 %10, i64 4, i1 false)
  call void @llvm.memcpy.p0.p0.i64(ptr align 4 %27, ptr align 4 @_ZL5noreg, i64 4, i1 false)
  call void @llvm.memcpy.p0.p0.i64(ptr align 4 %28, ptr align 4 @_ZL5noreg, i64 4, i1 false)
  call void @llvm.memcpy.p0.p0.i64(ptr align 4 %29, ptr align 4 @_ZL5noreg, i64 4, i1 false)
  %76 = getelementptr inbounds %class.Register, ptr %26, i32 0, i32 0
  %77 = load i32, ptr %76, align 4
  %78 = getelementptr inbounds %class.Register, ptr %27, i32 0, i32 0
  %79 = load i32, ptr %78, align 4
  %80 = getelementptr inbounds %class.Register, ptr %28, i32 0, i32 0
  %81 = load i32, ptr %80, align 4
  %82 = getelementptr inbounds %class.Register, ptr %29, i32 0, i32 0
  %83 = load i32, ptr %82, align 4
  call void @_ZN19BarrierSetAssembler8store_atEP14MacroAssemblerm9BasicType7Address8RegisterS4_S4_S4_(ptr noundef nonnull align 8 dereferenceable(8) %42, ptr noundef %73, i64 noundef %74, i8 noundef zeroext %75, ptr noundef %25, i32 %77, i32 %79, i32 %81, i32 %83)
  %84 = load i8, ptr %23, align 1
  %85 = trunc i8 %84 to i1
  br i1 %85, label %86, label %117

86:                                               ; preds = %70
  %87 = load i8, ptr %22, align 1
  %88 = trunc i8 %87 to i1
  br i1 %88, label %89, label %101

89:                                               ; preds = %86
  %90 = call i32 @_ZNK7Address5indexEv(ptr noundef nonnull align 8 dereferenceable(64) %4)
  %91 = getelementptr inbounds %class.Register, ptr %30, i32 0, i32 0
  store i32 %90, ptr %91, align 4
  call void @llvm.memcpy.p0.p0.i64(ptr align 4 %31, ptr align 4 @_ZL5noreg, i64 4, i1 false)
  %92 = getelementptr inbounds %class.Register, ptr %31, i32 0, i32 0
  %93 = load i32, ptr %92, align 4
  %94 = call noundef i32 @_ZNK8RegistereqES_(ptr noundef nonnull align 4 dereferenceable(4) %30, i32 %93)
  %95 = icmp ne i32 %94, 0
  br i1 %95, label %96, label %99

96:                                               ; preds = %89
  %97 = call noundef i32 @_ZN7Address4dispEv(ptr noundef nonnull align 8 dereferenceable(64) %4)
  %98 = icmp eq i32 %97, 0
  br label %99

99:                                               ; preds = %96, %89
  %100 = phi i1 [ false, %89 ], [ %98, %96 ]
  br label %101

101:                                              ; preds = %99, %86
  %102 = phi i1 [ true, %86 ], [ %100, %99 ]
  br i1 %102, label %103, label %109

103:                                              ; preds = %101
  %104 = load ptr, ptr %15, align 8
  %105 = call i32 @_ZNK7Address4baseEv(ptr noundef nonnull align 8 dereferenceable(64) %4)
  %106 = getelementptr inbounds %class.Register, ptr %32, i32 0, i32 0
  store i32 %105, ptr %106, align 4
  call void @_ZN7AddressC2ERKS_(ptr noundef nonnull align 8 dereferenceable(64) %33, ptr noundef nonnull align 8 dereferenceable(64) %4)
  %107 = getelementptr inbounds %class.Register, ptr %32, i32 0, i32 0
  %108 = load i32, ptr %107, align 4
  call void @_ZN28CardTableBarrierSetAssembler11store_checkEP14MacroAssembler8Register7Address(ptr noundef nonnull align 8 dereferenceable(8) %42, ptr noundef %104, i32 %108, ptr noundef %33)
  br label %116

109:                                              ; preds = %101
  %110 = load ptr, ptr %15, align 8
  call void @llvm.memcpy.p0.p0.i64(ptr align 4 %34, ptr align 4 %11, i64 4, i1 false)
  call void @_ZN7AddressC2ERKS_(ptr noundef nonnull align 8 dereferenceable(64) %35, ptr noundef nonnull align 8 dereferenceable(64) %4)
  %111 = getelementptr inbounds %class.Register, ptr %34, i32 0, i32 0
  %112 = load i32, ptr %111, align 4
  call void @_ZN14MacroAssembler3leaE8Register7Address(ptr noundef nonnull align 8 dereferenceable(40) %110, i32 %112, ptr noundef %35)
  %113 = load ptr, ptr %15, align 8
  call void @llvm.memcpy.p0.p0.i64(ptr align 4 %36, ptr align 4 %11, i64 4, i1 false)
  call void @_ZN7AddressC2ERKS_(ptr noundef nonnull align 8 dereferenceable(64) %37, ptr noundef nonnull align 8 dereferenceable(64) %4)
  %114 = getelementptr inbounds %class.Register, ptr %36, i32 0, i32 0
  %115 = load i32, ptr %114, align 4
  call void @_ZN28CardTableBarrierSetAssembler11store_checkEP14MacroAssembler8Register7Address(ptr noundef nonnull align 8 dereferenceable(8) %42, ptr noundef %113, i32 %115, ptr noundef %37)
  br label %116

116:                                              ; preds = %109, %103
  br label %117

117:                                              ; preds = %116, %70
  ret void
}