; Function Attrs: mustprogress nounwind uwtable
define hidden void @_ZN28CardTableBarrierSetAssembler12oop_store_atEP14MacroAssemblerm9BasicType7Address8RegisterS4_S4_S4_(ptr noundef nonnull align 8 dereferenceable(8) %0, ptr noundef %1, i64 noundef %2, i8 noundef zeroext %3, ptr noundef %4, i32 %5, i32 %6, i32 %7, i32 %8) unnamed_addr #0 align 2 {
  %10 = alloca %class.Address, align 8
  %11 = alloca %class.Address, align 8
  %12 = alloca %class.Address, align 8
  %13 = alloca %class.Address, align 8
  %14 = alloca %class.Address, align 8
  %15 = and i64 %2, 262144
  %16 = icmp ne i64 %15, 0
  %17 = icmp ne i32 %5, -1
  %18 = and i1 %16, %17
  call void @llvm.memcpy.p0.p0.i64(ptr noundef nonnull align 8 dereferenceable(21) %11, ptr noundef nonnull align 8 dereferenceable(21) %4, i64 21, i1 false)
  %19 = getelementptr inbounds i8, ptr %11, i64 24
  %20 = getelementptr inbounds i8, ptr %4, i64 24
  %21 = load ptr, ptr %20, align 8
  %22 = getelementptr inbounds i8, ptr %21, i64 16
  %23 = load ptr, ptr %22, align 8
  call void %23(ptr noundef nonnull align 8 dereferenceable(20) %20, ptr noundef nonnull align 8 dereferenceable(40) %19) #5
  call void @_ZN19BarrierSetAssembler8store_atEP14MacroAssemblerm9BasicType7Address8RegisterS4_S4_S4_(ptr noundef nonnull align 8 dereferenceable(8) %0, ptr noundef %1, i64 noundef %2, i8 noundef zeroext %3, ptr noundef nonnull %11, i32 %5, i32 -1, i32 -1, i32 -1) #5
  br i1 %18, label %24, label %48

24:                                               ; preds = %9
  %25 = and i64 %2, 2228224
  %.not = icmp eq i64 %25, 0
  br i1 %.not, label %.critedge, label %26

26:                                               ; preds = %24
  %27 = getelementptr inbounds i8, ptr %4, i64 4
  %.sroa.0.0.copyload.i = load i32, ptr %27, align 4
  %.not32 = icmp eq i32 %.sroa.0.0.copyload.i, -1
  br i1 %.not32, label %28, label %.critedge2

28:                                               ; preds = %26
  %29 = getelementptr inbounds i8, ptr %4, i64 16
  %30 = load i32, ptr %29, align 8
  %31 = icmp eq i32 %30, 0
  br i1 %31, label %.critedge, label %.critedge2

.critedge:                                        ; preds = %24, %28
  %.sroa.0.0.copyload.i29 = load i32, ptr %4, align 8
  call void @llvm.memcpy.p0.p0.i64(ptr noundef nonnull align 8 dereferenceable(21) %12, ptr noundef nonnull align 8 dereferenceable(21) %4, i64 21, i1 false)
  %32 = getelementptr inbounds i8, ptr %12, i64 24
  %33 = load ptr, ptr %20, align 8
  %34 = getelementptr inbounds i8, ptr %33, i64 16
  %35 = load ptr, ptr %34, align 8
  call void %35(ptr noundef nonnull align 8 dereferenceable(20) %20, ptr noundef nonnull align 8 dereferenceable(40) %32) #5
  call void @_ZN28CardTableBarrierSetAssembler11store_checkEP14MacroAssembler8Register7Address(ptr nonnull align 8 poison, ptr noundef %1, i32 %.sroa.0.0.copyload.i29, ptr nonnull poison)
  br label %48

.critedge2:                                       ; preds = %26, %28
  call void @llvm.memcpy.p0.p0.i64(ptr noundef nonnull align 8 dereferenceable(21) %13, ptr noundef nonnull align 8 dereferenceable(21) %4, i64 21, i1 false)
  %36 = getelementptr inbounds i8, ptr %13, i64 24
  %37 = load ptr, ptr %20, align 8
  %38 = getelementptr inbounds i8, ptr %37, i64 16
  %39 = load ptr, ptr %38, align 8
  call void %39(ptr noundef nonnull align 8 dereferenceable(20) %20, ptr noundef nonnull align 8 dereferenceable(40) %36) #5
  call void @llvm.lifetime.start.p0(i64 64, ptr nonnull %10)
  call void @llvm.memcpy.p0.p0.i64(ptr noundef nonnull align 8 dereferenceable(21) %10, ptr noundef nonnull align 8 dereferenceable(21) %13, i64 21, i1 false)
  %40 = getelementptr inbounds i8, ptr %10, i64 24
  %41 = load ptr, ptr %36, align 8
  %42 = getelementptr inbounds i8, ptr %41, i64 16
  %43 = load ptr, ptr %42, align 8
  call void %43(ptr noundef nonnull align 8 dereferenceable(20) %36, ptr noundef nonnull align 8 dereferenceable(40) %40) #5
  call void @_ZN9Assembler3leaE8Register7Address(ptr noundef nonnull align 8 dereferenceable(40) %1, i32 %6, ptr noundef nonnull %10) #5
  call void @llvm.lifetime.end.p0(i64 64, ptr nonnull %10)
  call void @llvm.memcpy.p0.p0.i64(ptr noundef nonnull align 8 dereferenceable(21) %14, ptr noundef nonnull align 8 dereferenceable(21) %4, i64 21, i1 false)
  %44 = getelementptr inbounds i8, ptr %14, i64 24
  %45 = load ptr, ptr %20, align 8
  %46 = getelementptr inbounds i8, ptr %45, i64 16
  %47 = load ptr, ptr %46, align 8
  call void %47(ptr noundef nonnull align 8 dereferenceable(20) %20, ptr noundef nonnull align 8 dereferenceable(40) %44) #5
  call void @_ZN28CardTableBarrierSetAssembler11store_checkEP14MacroAssembler8Register7Address(ptr nonnull align 8 poison, ptr noundef nonnull %1, i32 %6, ptr nonnull poison)
  br label %48

48:                                               ; preds = %.critedge, %.critedge2, %9
  ret void
}